; Function Attrs: nounwind sspstrong uwtable
define dso_local void @bdrv_reset_dirty_bitmap_locked(ptr noundef readonly captures(none) %bitmap, i64 noundef %offset, i64 noundef %bytes) local_unnamed_addr #0 {
entry:
  %readonly.i = getelementptr inbounds nuw i8, ptr %bitmap, i64 56
  %0 = load i8, ptr %readonly.i, align 8
  %tobool.i = trunc i8 %0 to i1
  br i1 %tobool.i, label %if.else, label %if.end

if.else:                                          ; preds = %entry
  tail call void @__assert_fail(ptr noundef nonnull @.str.21, ptr noundef nonnull @.str.1, i32 noundef 562, ptr noundef nonnull @__PRETTY_FUNCTION__.bdrv_reset_dirty_bitmap_locked) #15
  unreachable

if.end:                                           ; preds = %entry
  %bitmap1 = getelementptr inbounds nuw i8, ptr %bitmap, i64 8
  %1 = load ptr, ptr %bitmap1, align 8
  tail call void @hbitmap_reset(ptr noundef %1, i64 noundef %offset, i64 noundef %bytes) #14
  ret void
}